target datalayout = "e-m:e-p270:32:32-p271:32:32-p272:64:64-i64:64-i128:128-f80:128-n8:16:32:64-S128"
target triple = "x86_64-pc-linux-gnu"

%struct._zend_executor_globals = type { %struct._zval_struct, %struct._zval_struct, [32 x ptr], ptr, ptr, %struct._zend_array, %struct._zend_array, ptr, i32, i32, ptr, ptr, ptr, ptr, ptr, ptr, i64, ptr, ptr, i32, i32, i64, i32, i32, i32, i8, i8, %struct.zend_atomic_bool_s, %struct.zend_atomic_bool_s, ptr, i64, ptr, ptr, %struct._zend_array, %struct._zend_array, i32, i8, %struct._zval_struct, %struct._zval_struct, %struct._zend_stack, %struct._zend_stack, %struct._zend_stack, ptr, i32, i32, i64, ptr, ptr, ptr, %struct._zend_objects_store, ptr, ptr, ptr, [3 x %struct._zend_op], ptr, i8, i8, i64, i32, i32, ptr, [16 x %struct._HashTableIterator], ptr, %union._zend_function, %struct._zend_op, %struct._zend_array, i64, %struct.zend_get_gc_buffer, ptr, ptr, ptr, i64, i8, i32, ptr, ptr, i64, %struct._zend_call_stack, i64, i64, [6 x ptr] }
%struct.zend_atomic_bool_s = type { i8 }
%struct._zval_struct = type { %union._zend_value, %union.anon, %union.anon.2 }
%union._zend_value = type { i64 }
%union.anon = type { i32 }
%union.anon.2 = type { i32 }
%struct._zend_stack = type { i32, i32, i32, ptr }
%struct._zend_objects_store = type { ptr, i32, i32, i32 }
%struct._HashTableIterator = type { ptr, i32, i32 }
%union._zend_function = type { %struct._zend_op_array }
%struct._zend_op_array = type { i8, [3 x i8], i32, ptr, ptr, ptr, i32, i32, ptr, ptr, ptr, ptr, i32, i32, i32, i32, ptr, ptr, ptr, ptr, ptr, i32, i32, ptr, ptr, ptr, i32, i32, i32, i32, ptr, ptr, [6 x ptr] }
%struct._zend_op = type { ptr, %union._znode_op, %union._znode_op, %union._znode_op, i32, i32, i8, i8, i8, i8 }
%union._znode_op = type { i32 }
%struct._zend_array = type { %struct._zend_refcounted_h, %union.anon.5, i32, %union.anon.7, i32, i32, i32, i32, i64, ptr }
%struct._zend_refcounted_h = type { i32, %union.anon.4 }
%union.anon.4 = type { i32 }
%union.anon.5 = type { i32 }
%union.anon.7 = type { ptr }
%struct.zend_get_gc_buffer = type { ptr, ptr, ptr }
%struct._zend_call_stack = type { ptr, i64 }
%struct._zend_execute_data = type { ptr, ptr, ptr, ptr, %struct._zval_struct, ptr, ptr, ptr, ptr }
%struct._zend_class_entry = type { i8, ptr, %union.anon.3, i32, i32, i32, i32, ptr, ptr, ptr, %struct._zend_array, %struct._zend_array, %struct._zend_array, ptr, ptr, ptr, ptr, ptr, ptr, ptr, ptr, ptr, ptr, ptr, ptr, ptr, ptr, ptr, ptr, ptr, ptr, ptr, %union.anon.8, ptr, ptr, ptr, ptr, i32, i32, %union.anon.9, ptr, ptr, ptr, ptr, i32, ptr, ptr, %union.anon.10 }
%union.anon.3 = type { ptr }
%union.anon.8 = type { ptr }
%union.anon.9 = type { ptr }
%union.anon.10 = type { %struct.anon.11 }
%struct.anon.11 = type { ptr, i32, i32 }
%struct._zend_string = type { %struct._zend_refcounted_h, i64, i64, [1 x i8] }

@.str.3 = private unnamed_addr constant [37 x i8] c"Cannot instantiate abstract class %s\00", align 1
@executor_globals = external global %struct._zend_executor_globals, align 8

; Function Attrs: nounwind uwtable
define hidden void @zim_PhpToken_tokenize(ptr noundef %0, ptr noundef %1) #0 {
  %3 = alloca ptr, align 8
  %4 = alloca ptr, align 8
  %5 = alloca i1, align 1
  %6 = alloca ptr, align 8
  %7 = alloca ptr, align 8
  %8 = alloca ptr, align 8
  %9 = alloca i8, align 1
  %10 = alloca i32, align 4
  %11 = alloca i8, align 1
  %12 = alloca ptr, align 8
  %13 = alloca ptr, align 8
  %14 = alloca i1, align 1
  %15 = alloca ptr, align 8
  %16 = alloca ptr, align 8
  %17 = alloca i8, align 1
  %18 = alloca i32, align 4
  %19 = alloca i8, align 1
  %20 = alloca ptr, align 8
  %21 = alloca ptr, align 8
  %22 = alloca ptr, align 8
  %23 = alloca i8, align 1
  %24 = alloca i32, align 4
  %25 = alloca ptr, align 8
  %26 = alloca ptr, align 8
  %27 = alloca i8, align 1
  %28 = alloca i32, align 4
  %29 = alloca ptr, align 8
  %30 = alloca ptr, align 8
  %31 = alloca ptr, align 8
  %32 = alloca i64, align 8
  %33 = alloca ptr, align 8
  %34 = alloca i32, align 4
  %35 = alloca i32, align 4
  %36 = alloca i32, align 4
  %37 = alloca i32, align 4
  %38 = alloca i32, align 4
  %39 = alloca ptr, align 8
  %40 = alloca ptr, align 8
  %41 = alloca i32, align 4
  %42 = alloca ptr, align 8
  %43 = alloca i8, align 1
  %44 = alloca i8, align 1
  %45 = alloca i32, align 4
  store ptr %0, ptr %29, align 8
  store ptr %1, ptr %30, align 8
  store i64 0, ptr %32, align 8
  br label %46

46:                                               ; preds = %2
  store i32 0, ptr %34, align 4
  store i32 1, ptr %35, align 4
  store i32 2, ptr %36, align 4
  %47 = load ptr, ptr %29, align 8
  %48 = getelementptr inbounds %struct._zend_execute_data, ptr %47, i32 0, i32 4
  %49 = getelementptr inbounds %struct._zval_struct, ptr %48, i32 0, i32 2
  %50 = load i32, ptr %49, align 4
  store i32 %50, ptr %37, align 4
  store i32 0, ptr %38, align 4
  store ptr null, ptr %40, align 8
  store i32 0, ptr %41, align 4
  store ptr null, ptr %42, align 8
  store i8 0, ptr %43, align 1
  store i8 0, ptr %44, align 1
  store i32 0, ptr %45, align 4
  br label %51

51:                                               ; preds = %46
  %52 = load i32, ptr %37, align 4
  %53 = load i32, ptr %35, align 4
  %54 = icmp ult i32 %52, %53
  %55 = xor i1 %54, true
  %56 = xor i1 %55, true
  %57 = zext i1 %56 to i32
  %58 = sext i32 %57 to i64
  %59 = icmp ne i64 %58, 0
  br i1 %59, label %69, label %60

60:                                               ; preds = %51
  %61 = load i32, ptr %37, align 4
  %62 = load i32, ptr %36, align 4
  %63 = icmp ugt i32 %61, %62
  %64 = xor i1 %63, true
  %65 = xor i1 %64, true
  %66 = zext i1 %65 to i32
  %67 = sext i32 %66 to i64
  %68 = icmp ne i64 %67, 0
  br i1 %68, label %69, label %72

69:                                               ; preds = %60, %51
  %70 = load i32, ptr %35, align 4
  %71 = load i32, ptr %36, align 4
  call void @zend_wrong_parameters_count_error(i32 noundef %70, i32 noundef %71)
  store i32 1, ptr %45, align 4
  br label %276

72:                                               ; preds = %60
  %73 = load ptr, ptr %29, align 8
  %74 = getelementptr inbounds %struct._zval_struct, ptr %73, i64 4
  store ptr %74, ptr %39, align 8
  %75 = load i32, ptr %38, align 4
  %76 = add i32 %75, 1
  store i32 %76, ptr %38, align 4
  %77 = load i32, ptr %38, align 4
  %78 = load i32, ptr %35, align 4
  %79 = icmp ule i32 %77, %78
  br i1 %79, label %85, label %80

80:                                               ; preds = %72
  %81 = load i8, ptr %44, align 1
  %82 = trunc i8 %81 to i1
  %83 = zext i1 %82 to i32
  %84 = icmp eq i32 %83, 1
  br label %85

85:                                               ; preds = %80, %72
  %86 = phi i1 [ true, %72 ], [ %84, %80 ]
  call void @llvm.assume(i1 %86)
  %87 = load i32, ptr %38, align 4
  %88 = load i32, ptr %35, align 4
  %89 = icmp ugt i32 %87, %88
  br i1 %89, label %95, label %90

90:                                               ; preds = %85
  %91 = load i8, ptr %44, align 1
  %92 = trunc i8 %91 to i1
  %93 = zext i1 %92 to i32
  %94 = icmp eq i32 %93, 0
  br label %95

95:                                               ; preds = %90, %85
  %96 = phi i1 [ true, %85 ], [ %94, %90 ]
  call void @llvm.assume(i1 %96)
  %97 = load i8, ptr %44, align 1
  %98 = trunc i8 %97 to i1
  br i1 %98, label %99, label %110

99:                                               ; preds = %95
  %100 = load i32, ptr %38, align 4
  %101 = load i32, ptr %37, align 4
  %102 = icmp ugt i32 %100, %101
  %103 = xor i1 %102, true
  %104 = xor i1 %103, true
  %105 = zext i1 %104 to i32
  %106 = sext i32 %105 to i64
  %107 = icmp ne i64 %106, 0
  br i1 %107, label %108, label %109

108:                                              ; preds = %99
  br label %276

109:                                              ; preds = %99
  br label %110

110:                                              ; preds = %109, %95
  %111 = load ptr, ptr %39, align 8
  %112 = getelementptr inbounds %struct._zval_struct, ptr %111, i32 1
  store ptr %112, ptr %39, align 8
  %113 = load ptr, ptr %39, align 8
  store ptr %113, ptr %40, align 8
  %114 = load ptr, ptr %40, align 8
  %115 = load i32, ptr %38, align 4
  store ptr %114, ptr %25, align 8
  store ptr %31, ptr %26, align 8
  store i8 0, ptr %27, align 1
  store i32 %115, ptr %28, align 4
  %116 = load ptr, ptr %25, align 8
  %117 = load ptr, ptr %26, align 8
  %118 = load i8, ptr %27, align 1
  %119 = trunc i8 %118 to i1
  %120 = load i32, ptr %28, align 4
  store ptr %116, ptr %15, align 8
  store ptr %117, ptr %16, align 8
  %121 = zext i1 %119 to i8
  store i8 %121, ptr %17, align 1
  store i32 %120, ptr %18, align 4
  store i8 0, ptr %19, align 1
  %122 = load ptr, ptr %15, align 8
  store ptr %122, ptr %12, align 8
  %123 = load ptr, ptr %12, align 8
  %124 = getelementptr inbounds %struct._zval_struct, ptr %123, i32 0, i32 1
  %125 = load i8, ptr %124, align 8
  %126 = zext i8 %125 to i32
  %127 = icmp eq i32 %126, 6
  br i1 %127, label %128, label %132

128:                                              ; preds = %110
  %129 = load ptr, ptr %15, align 8
  %130 = load ptr, ptr %129, align 8
  %131 = load ptr, ptr %16, align 8
  store ptr %130, ptr %131, align 8
  br label %157

132:                                              ; preds = %110
  %133 = load i8, ptr %17, align 1
  %134 = trunc i8 %133 to i1
  br i1 %134, label %135, label %144

135:                                              ; preds = %132
  %136 = load ptr, ptr %15, align 8
  store ptr %136, ptr %13, align 8
  %137 = load ptr, ptr %13, align 8
  %138 = getelementptr inbounds %struct._zval_struct, ptr %137, i32 0, i32 1
  %139 = load i8, ptr %138, align 8
  %140 = zext i8 %139 to i32
  %141 = icmp eq i32 %140, 1
  br i1 %141, label %142, label %144

142:                                              ; preds = %135
  %143 = load ptr, ptr %16, align 8
  store ptr null, ptr %143, align 8
  br label %157

144:                                              ; preds = %135, %132
  %145 = load i8, ptr %19, align 1
  %146 = trunc i8 %145 to i1
  br i1 %146, label %147, label %152

147:                                              ; preds = %144
  %148 = load ptr, ptr %15, align 8
  %149 = load ptr, ptr %16, align 8
  %150 = load i32, ptr %18, align 4
  %151 = call zeroext i1 @zend_flf_parse_arg_str_slow(ptr noundef %148, ptr noundef %149, i32 noundef %150) #9
  store i1 %151, ptr %14, align 1
  br label %158

152:                                              ; preds = %144
  %153 = load ptr, ptr %15, align 8
  %154 = load ptr, ptr %16, align 8
  %155 = load i32, ptr %18, align 4
  %156 = call zeroext i1 @zend_parse_arg_str_slow(ptr noundef %153, ptr noundef %154, i32 noundef %155) #9
  store i1 %156, ptr %14, align 1
  br label %158

157:                                              ; preds = %142, %128
  store i1 true, ptr %14, align 1
  br label %158

158:                                              ; preds = %157, %152, %147
  %159 = load i1, ptr %14, align 1
  %160 = xor i1 %159, true
  %161 = xor i1 %160, true
  %162 = xor i1 %161, true
  %163 = zext i1 %162 to i32
  %164 = sext i32 %163 to i64
  %165 = icmp ne i64 %164, 0
  br i1 %165, label %166, label %167

166:                                              ; preds = %158
  store i32 4, ptr %41, align 4
  store i32 9, ptr %45, align 4
  br label %276

167:                                              ; preds = %158
  store i8 1, ptr %44, align 1
  %168 = load i32, ptr %38, align 4
  %169 = add i32 %168, 1
  store i32 %169, ptr %38, align 4
  %170 = load i32, ptr %38, align 4
  %171 = load i32, ptr %35, align 4
  %172 = icmp ule i32 %170, %171
  br i1 %172, label %178, label %173

173:                                              ; preds = %167
  %174 = load i8, ptr %44, align 1
  %175 = trunc i8 %174 to i1
  %176 = zext i1 %175 to i32
  %177 = icmp eq i32 %176, 1
  br label %178

178:                                              ; preds = %173, %167
  %179 = phi i1 [ true, %167 ], [ %177, %173 ]
  call void @llvm.assume(i1 %179)
  %180 = load i32, ptr %38, align 4
  %181 = load i32, ptr %35, align 4
  %182 = icmp ugt i32 %180, %181
  br i1 %182, label %188, label %183

183:                                              ; preds = %178
  %184 = load i8, ptr %44, align 1
  %185 = trunc i8 %184 to i1
  %186 = zext i1 %185 to i32
  %187 = icmp eq i32 %186, 0
  br label %188

188:                                              ; preds = %183, %178
  %189 = phi i1 [ true, %178 ], [ %187, %183 ]
  call void @llvm.assume(i1 %189)
  %190 = load i8, ptr %44, align 1
  %191 = trunc i8 %190 to i1
  br i1 %191, label %192, label %203

192:                                              ; preds = %188
  %193 = load i32, ptr %38, align 4
  %194 = load i32, ptr %37, align 4
  %195 = icmp ugt i32 %193, %194
  %196 = xor i1 %195, true
  %197 = xor i1 %196, true
  %198 = zext i1 %197 to i32
  %199 = sext i32 %198 to i64
  %200 = icmp ne i64 %199, 0
  br i1 %200, label %201, label %202

201:                                              ; preds = %192
  br label %276

202:                                              ; preds = %192
  br label %203

203:                                              ; preds = %202, %188
  %204 = load ptr, ptr %39, align 8
  %205 = getelementptr inbounds %struct._zval_struct, ptr %204, i32 1
  store ptr %205, ptr %39, align 8
  %206 = load ptr, ptr %39, align 8
  store ptr %206, ptr %40, align 8
  %207 = load ptr, ptr %40, align 8
  %208 = load i32, ptr %38, align 4
  store ptr %207, ptr %20, align 8
  store ptr %32, ptr %21, align 8
  store ptr %43, ptr %22, align 8
  store i8 0, ptr %23, align 1
  store i32 %208, ptr %24, align 4
  %209 = load ptr, ptr %20, align 8
  %210 = load ptr, ptr %21, align 8
  %211 = load ptr, ptr %22, align 8
  %212 = load i8, ptr %23, align 1
  %213 = trunc i8 %212 to i1
  %214 = load i32, ptr %24, align 4
  store ptr %209, ptr %6, align 8
  store ptr %210, ptr %7, align 8
  store ptr %211, ptr %8, align 8
  %215 = zext i1 %213 to i8
  store i8 %215, ptr %9, align 1
  store i32 %214, ptr %10, align 4
  store i8 0, ptr %11, align 1
  %216 = load i8, ptr %9, align 1
  %217 = trunc i8 %216 to i1
  br i1 %217, label %218, label %220

218:                                              ; preds = %203
  %219 = load ptr, ptr %8, align 8
  store i8 0, ptr %219, align 1
  br label %220

220:                                              ; preds = %218, %203
  %221 = load ptr, ptr %6, align 8
  store ptr %221, ptr %3, align 8
  %222 = load ptr, ptr %3, align 8
  %223 = getelementptr inbounds %struct._zval_struct, ptr %222, i32 0, i32 1
  %224 = load i8, ptr %223, align 8
  %225 = zext i8 %224 to i32
  %226 = icmp eq i32 %225, 4
  br i1 %226, label %227, label %231

227:                                              ; preds = %220
  %228 = load ptr, ptr %6, align 8
  %229 = load i64, ptr %228, align 8
  %230 = load ptr, ptr %7, align 8
  store i64 %229, ptr %230, align 8
  br label %257

231:                                              ; preds = %220
  %232 = load i8, ptr %9, align 1
  %233 = trunc i8 %232 to i1
  br i1 %233, label %234, label %244

234:                                              ; preds = %231
  %235 = load ptr, ptr %6, align 8
  store ptr %235, ptr %4, align 8
  %236 = load ptr, ptr %4, align 8
  %237 = getelementptr inbounds %struct._zval_struct, ptr %236, i32 0, i32 1
  %238 = load i8, ptr %237, align 8
  %239 = zext i8 %238 to i32
  %240 = icmp eq i32 %239, 1
  br i1 %240, label %241, label %244

241:                                              ; preds = %234
  %242 = load ptr, ptr %8, align 8
  store i8 1, ptr %242, align 1
  %243 = load ptr, ptr %7, align 8
  store i64 0, ptr %243, align 8
  br label %257

244:                                              ; preds = %234, %231
  %245 = load i8, ptr %11, align 1
  %246 = trunc i8 %245 to i1
  br i1 %246, label %247, label %252

247:                                              ; preds = %244
  %248 = load ptr, ptr %6, align 8
  %249 = load ptr, ptr %7, align 8
  %250 = load i32, ptr %10, align 4
  %251 = call zeroext i1 @zend_flf_parse_arg_long_slow(ptr noundef %248, ptr noundef %249, i32 noundef %250) #9
  store i1 %251, ptr %5, align 1
  br label %258

252:                                              ; preds = %244
  %253 = load ptr, ptr %6, align 8
  %254 = load ptr, ptr %7, align 8
  %255 = load i32, ptr %10, align 4
  %256 = call zeroext i1 @zend_parse_arg_long_slow(ptr noundef %253, ptr noundef %254, i32 noundef %255) #9
  store i1 %256, ptr %5, align 1
  br label %258

257:                                              ; preds = %241, %227
  store i1 true, ptr %5, align 1
  br label %258

258:                                              ; preds = %257, %252, %247
  %259 = load i1, ptr %5, align 1
  %260 = xor i1 %259, true
  %261 = xor i1 %260, true
  %262 = xor i1 %261, true
  %263 = zext i1 %262 to i32
  %264 = sext i32 %263 to i64
  %265 = icmp ne i64 %264, 0
  br i1 %265, label %266, label %267

266:                                              ; preds = %258
  store i32 0, ptr %41, align 4
  store i32 9, ptr %45, align 4
  br label %276

267:                                              ; preds = %258
  %268 = load i32, ptr %38, align 4
  %269 = load i32, ptr %36, align 4
  %270 = icmp eq i32 %268, %269
  br i1 %270, label %274, label %271

271:                                              ; preds = %267
  %272 = load i32, ptr %36, align 4
  %273 = icmp eq i32 %272, -1
  br label %274

274:                                              ; preds = %271, %267
  %275 = phi i1 [ true, %267 ], [ %273, %271 ]
  call void @llvm.assume(i1 %275)
  br label %276

276:                                              ; preds = %274, %266, %201, %166, %108, %69
  %277 = load i32, ptr %45, align 4
  %278 = icmp ne i32 %277, 0
  %279 = xor i1 %278, true
  %280 = xor i1 %279, true
  %281 = zext i1 %280 to i32
  %282 = sext i32 %281 to i64
  %283 = icmp ne i64 %282, 0
  br i1 %283, label %284, label %290

284:                                              ; preds = %276
  %285 = load i32, ptr %45, align 4
  %286 = load i32, ptr %38, align 4
  %287 = load ptr, ptr %42, align 8
  %288 = load i32, ptr %41, align 4
  %289 = load ptr, ptr %40, align 8
  call void @zend_wrong_parameter_error(i32 noundef %285, i32 noundef %286, ptr noundef %287, i32 noundef %288, ptr noundef %289)
  br label %329

290:                                              ; preds = %276
  br label %291

291:                                              ; preds = %290
  %292 = load ptr, ptr %29, align 8
  %293 = call ptr @zend_get_called_scope(ptr noundef %292)
  store ptr %293, ptr %33, align 8
  %294 = load ptr, ptr %33, align 8
  %295 = getelementptr inbounds %struct._zend_class_entry, ptr %294, i32 0, i32 4
  %296 = load i32, ptr %295, align 4
  %297 = and i32 %296, 64
  %298 = icmp ne i32 %297, 0
  br i1 %298, label %299, label %309

299:                                              ; preds = %291
  %300 = load ptr, ptr %33, align 8
  %301 = getelementptr inbounds %struct._zend_class_entry, ptr %300, i32 0, i32 1
  %302 = load ptr, ptr %301, align 8
  %303 = getelementptr inbounds %struct._zend_string, ptr %302, i32 0, i32 3
  %304 = getelementptr inbounds [1 x i8], ptr %303, i64 0, i64 0
  call void (ptr, ptr, ...) @zend_throw_error(ptr noundef null, ptr noundef @.str.3, ptr noundef %304)
  br label %305

305:                                              ; preds = %299
  %306 = load ptr, ptr getelementptr inbounds (%struct._zend_executor_globals, ptr @executor_globals, i32 0, i32 50), align 8
  %307 = icmp ne ptr %306, null
  call void @llvm.assume(i1 %307)
  br label %329

308:                                              ; No predecessors!
  br label %309

309:                                              ; preds = %308, %291
  %310 = load ptr, ptr %33, align 8
  %311 = call i32 @zend_update_class_constants(ptr noundef %310)
  %312 = icmp eq i32 %311, -1
  br i1 %312, label %313, label %318

313:                                              ; preds = %309
  br label %314

314:                                              ; preds = %313
  %315 = load ptr, ptr getelementptr inbounds (%struct._zend_executor_globals, ptr @executor_globals, i32 0, i32 50), align 8
  %316 = icmp ne ptr %315, null
  call void @llvm.assume(i1 %316)
  br label %329

317:                                              ; No predecessors!
  br label %318

318:                                              ; preds = %317, %309
  %319 = load ptr, ptr %30, align 8
  %320 = load ptr, ptr %31, align 8
  %321 = load i64, ptr %32, align 8
  %322 = load ptr, ptr %33, align 8
  %323 = call zeroext i1 @tokenize_common(ptr noundef %319, ptr noundef %320, i64 noundef %321, ptr noundef %322)
  br i1 %323, label %329, label %324

324:                                              ; preds = %318
  br label %325

325:                                              ; preds = %324
  %326 = load ptr, ptr getelementptr inbounds (%struct._zend_executor_globals, ptr @executor_globals, i32 0, i32 50), align 8
  %327 = icmp ne ptr %326, null
  call void @llvm.assume(i1 %327)
  br label %329

328:                                              ; No predecessors!
  br label %329

329:                                              ; preds = %328, %325, %318, %314, %305, %284
  ret void
}