; Function Attrs: nounwind uwtable
define hidden void @zim_PhpToken_tokenize(ptr noundef %0, ptr nocapture noundef %1) #0 {
  %3 = alloca ptr, align 8
  %4 = alloca i64, align 8
  store i64 0, ptr %4, align 8
  %5 = getelementptr inbounds i8, ptr %0, i64 44
  %6 = load i32, ptr %5, align 4
  %7 = add i32 %6, -3
  %or.cond = icmp ult i32 %7, -2
  br i1 %or.cond, label %8, label %9

8:                                                ; preds = %2
  tail call void @zend_wrong_parameters_count_error(i32 noundef 1, i32 noundef 2) #10
  br label %.thread119

9:                                                ; preds = %2
  %10 = getelementptr inbounds i8, ptr %0, i64 80
  %11 = getelementptr inbounds i8, ptr %0, i64 88
  %12 = load i8, ptr %11, align 8
  %13 = icmp eq i8 %12, 6
  br i1 %13, label %.critedge, label %15

.critedge:                                        ; preds = %9
  %14 = load ptr, ptr %10, align 8
  store ptr %14, ptr %3, align 8
  br label %17

15:                                               ; preds = %9
  %16 = call zeroext i1 @zend_parse_arg_str_slow(ptr noundef nonnull %10, ptr noundef nonnull %3, i32 noundef 1) #10
  br i1 %16, label %17, label %.thread119

17:                                               ; preds = %15, %.critedge
  %18 = icmp eq i32 %6, 1
  br i1 %18, label %.thread129, label %19

19:                                               ; preds = %17
  %20 = getelementptr inbounds i8, ptr %0, i64 96
  %21 = getelementptr inbounds i8, ptr %0, i64 104
  %22 = load i8, ptr %21, align 8
  %23 = icmp eq i8 %22, 4
  br i1 %23, label %.thread108, label %25

.thread108:                                       ; preds = %19
  %24 = load i64, ptr %20, align 8
  store i64 %24, ptr %4, align 8
  br label %.thread129

25:                                               ; preds = %19
  %26 = call zeroext i1 @zend_parse_arg_long_slow(ptr noundef nonnull %20, ptr noundef nonnull %4, i32 noundef 2) #10
  %.fr = freeze i1 %26
  br i1 %.fr, label %.thread129, label %.thread119

.thread119:                                       ; preds = %15, %8, %25
  %.0128 = phi i32 [ 9, %25 ], [ 9, %15 ], [ 1, %8 ]
  %.095127 = phi i32 [ 0, %25 ], [ 4, %15 ], [ 0, %8 ]
  %.096126 = phi ptr [ %20, %25 ], [ %10, %15 ], [ null, %8 ]
  %.097125 = phi i32 [ 2, %25 ], [ 1, %15 ], [ 0, %8 ]
  call void @zend_wrong_parameter_error(i32 noundef %.0128, i32 noundef %.097125, ptr noundef null, i32 noundef %.095127, ptr noundef %.096126) #10
  br label %50

.thread129:                                       ; preds = %25, %.thread108, %17
  %27 = call ptr @zend_get_called_scope(ptr noundef nonnull %0) #10
  %28 = getelementptr inbounds i8, ptr %27, i64 28
  %29 = load i32, ptr %28, align 4
  %30 = and i32 %29, 64
  %.not102 = icmp eq i32 %30, 0
  br i1 %.not102, label %37, label %31

31:                                               ; preds = %.thread129
  %32 = getelementptr inbounds i8, ptr %27, i64 8
  %33 = load ptr, ptr %32, align 8
  %34 = getelementptr inbounds i8, ptr %33, i64 24
  call void (ptr, ptr, ...) @zend_throw_error(ptr noundef null, ptr noundef nonnull @.str.3, ptr noundef nonnull %34) #10
  %35 = load ptr, ptr getelementptr inbounds (%struct._zend_executor_globals, ptr @executor_globals, i64 0, i32 50), align 8
  %36 = icmp ne ptr %35, null
  call void @llvm.assume(i1 %36)
  br label %50

37:                                               ; preds = %.thread129
  %38 = call i32 @zend_update_class_constants(ptr noundef nonnull %27) #10
  %39 = icmp eq i32 %38, -1
  br i1 %39, label %40, label %43

40:                                               ; preds = %37
  %41 = load ptr, ptr getelementptr inbounds (%struct._zend_executor_globals, ptr @executor_globals, i64 0, i32 50), align 8
  %42 = icmp ne ptr %41, null
  call void @llvm.assume(i1 %42)
  br label %50

43:                                               ; preds = %37
  %44 = load ptr, ptr %3, align 8
  %45 = load i64, ptr %4, align 8
  %46 = call fastcc zeroext i1 @tokenize_common(ptr noundef %1, ptr noundef %44, i64 noundef %45, ptr noundef nonnull %27)
  br i1 %46, label %50, label %47

47:                                               ; preds = %43
  %48 = load ptr, ptr getelementptr inbounds (%struct._zend_executor_globals, ptr @executor_globals, i64 0, i32 50), align 8
  %49 = icmp ne ptr %48, null
  call void @llvm.assume(i1 %49)
  br label %50

50:                                               ; preds = %47, %43, %40, %31, %.thread119
  ret void
}